Certificate:
    Data:
        Version: 3 (0x2)
        Serial Number:
            c1:f3:e5:11:12:81:dc:df:29:39:1a:bd:b9:94:85:56
        Signature Algorithm: sha256WithRSAEncryption
        Issuer: CN=at
        Validity
            Not Before: Dec 15 23:26:05 2020 GMT
            Not After : Mar 20 23:26:05 2023 GMT
        Subject: CN=dasha_router
        Subject Public Key Info:
            Public Key Algorithm: rsaEncryption
                RSA Public-Key: (2048 bit)
                Modulus:
                    00:b0:e6:22:10:cb:07:76:d7:27:b4:0c:3c:3d:26:
                    9c:06:69:e6:5f:ab:da:58:30:78:34:f5:fa:36:42:
                    ff:b2:26:cf:ea:f6:0c:8c:08:67:90:85:53:51:fc:
                    18:64:a5:96:ff:7d:c2:3c:2f:2e:1c:21:7a:35:f1:
                    c6:61:48:21:d7:02:7d:e7:ba:68:d1:9d:1d:c6:12:
                    05:69:1e:14:c0:b0:75:be:28:aa:9e:a3:21:37:64:
                    ee:9c:b0:54:c7:f6:a3:67:b7:90:f3:7d:16:1e:9a:
                    df:d5:e6:c7:45:e1:27:f8:07:07:49:89:95:26:65:
                    49:44:25:e1:53:a3:af:6b:b3:bd:6b:b7:8b:bd:c1:
                    4e:5e:4b:23:a8:a1:b6:df:58:0b:ea:10:ee:50:12:
                    15:cd:3c:c1:07:e4:cf:b9:75:fb:54:d1:ee:c2:a4:
                    56:20:90:2f:b0:74:28:2c:57:57:64:4d:0b:f0:27:
                    7d:19:19:c2:3d:fd:02:25:63:99:00:51:e3:02:e0:
                    5b:2d:3e:00:99:e7:44:39:ff:8d:3e:a8:04:50:77:
                    4f:b7:e5:b6:5d:59:58:1c:b7:97:5d:65:a5:f3:51:
                    86:46:a0:fa:f2:8f:16:48:d2:bd:06:e7:d5:16:28:
                    a7:fa:f2:1f:0d:62:f1:93:ac:3d:d9:12:06:4e:e6:
                    ef:b3
                Exponent: 65537 (0x10001)
        X509v3 extensions:
            X509v3 Basic Constraints: 
                CA:FALSE
            X509v3 Subject Key Identifier: 
                6A:BD:8F:B6:C6:DE:55:14:4D:CA:BB:F3:F2:11:27:DA:67:DA:95:C9
            X509v3 Authority Key Identifier: 
                keyid:9A:26:28:EE:75:98:66:53:C1:01:EA:DD:BB:D0:EF:25:13:28:35:93
                DirName:/CN=at
                serial:5B:E3:B5:62:C5:C9:66:A7:03:D5:C9:06:CB:28:31:51:DF:0C:E9:1E

            X509v3 Extended Key Usage: 
                TLS Web Client Authentication
            X509v3 Key Usage: 
                Digital Signature
    Signature Algorithm: sha256WithRSAEncryption
         a1:4b:ff:8a:d3:52:84:08:33:ba:5e:82:ae:6b:f8:12:9b:7b:
         03:03:4d:81:de:f3:f7:3e:3d:87:2b:0b:05:03:cb:ac:02:08:
         e8:67:9a:ec:15:78:6f:8f:da:d1:de:74:d8:fb:de:09:03:d4:
         c7:28:aa:9a:9c:ef:6d:16:8f:c5:03:5f:10:00:3f:6b:1c:06:
         95:b9:32:72:98:61:39:9f:63:4e:cf:35:9f:e9:b7:50:59:e6:
         6a:42:a9:02:ea:97:13:38:7b:5f:b9:38:b6:53:72:22:28:87:
         10:80:97:9c:41:52:69:de:9c:d5:d1:76:22:ed:ad:e4:77:b4:
         00:ac:ca:ff:c4:1a:dd:56:d1:f4:c5:d9:3f:a6:93:0c:93:a0:
         9d:51:87:1f:88:6f:69:d9:95:ca:50:8c:cf:23:ca:c4:4d:2e:
         94:de:7a:61:25:42:28:90:6e:10:7e:65:bc:50:80:33:e4:78:
         a5:56:af:30:4a:b4:c8:ad:85:e6:63:ee:a3:a9:8b:92:d1:1c:
         83:1f:77:ff:66:f7:80:bb:95:db:67:f6:8d:9e:fd:48:39:91:
         96:af:63:e3:0f:a2:e4:19:49:1f:08:56:00:21:96:bf:47:74:
         a2:d7:70:33:d5:a4:1a:ed:4e:3d:38:68:61:c1:78:7c:ed:67:
         70:93:69:99
-----BEGIN CERTIFICATE-----
MIIDSTCCAjGgAwIBAgIRAMHz5RESgdzfKTkavbmUhVYwDQYJKoZIhvcNAQELBQAw
DTELMAkGA1UEAwwCYXQwHhcNMjAxMjE1MjMyNjA1WhcNMjMwMzIwMjMyNjA1WjAX
MRUwEwYDVQQDDAxkYXNoYV9yb3V0ZXIwggEiMA0GCSqGSIb3DQEBAQUAA4IBDwAw
ggEKAoIBAQCw5iIQywd21ye0DDw9JpwGaeZfq9pYMHg09fo2Qv+yJs/q9gyMCGeQ
hVNR/BhkpZb/fcI8Ly4cIXo18cZhSCHXAn3numjRnR3GEgVpHhTAsHW+KKqeoyE3
ZO6csFTH9qNnt5DzfRYemt/V5sdF4Sf4BwdJiZUmZUlEJeFTo69rs71rt4u9wU5e
SyOoobbfWAvqEO5QEhXNPMEH5M+5dftU0e7CpFYgkC+wdCgsV1dkTQvwJ30ZGcI9
/QIlY5kAUeMC4FstPgCZ50Q5/40+qARQd0+35bZdWVgct5ddZaXzUYZGoPryjxZI
0r0G59UWKKf68h8NYvGTrD3ZEgZO5u+zAgMBAAGjgZkwgZYwCQYDVR0TBAIwADAd
BgNVHQ4EFgQUar2PtsbeVRRNyrvz8hEn2mfalckwSAYDVR0jBEEwP4AUmiYo7nWY
ZlPBAerdu9DvJRMoNZOhEaQPMA0xCzAJBgNVBAMMAmF0ghRb47VixclmpwPVyQbL
KDFR3wzpHjATBgNVHSUEDDAKBggrBgEFBQcDAjALBgNVHQ8EBAMCB4AwDQYJKoZI
hvcNAQELBQADggEBAKFL/4rTUoQIM7pegq5r+BKbewMDTYHe8/c+PYcrCwUDy6wC
COhnmuwVeG+P2tHedNj73gkD1Mcoqpqc720Wj8UDXxAAP2scBpW5MnKYYTmfY07P
NZ/pt1BZ5mpCqQLqlxM4e1+5OLZTciIohxCAl5xBUmnenNXRdiLtreR3tACsyv/E
Gt1W0fTF2T+mkwyToJ1Rhx+Ib2nZlcpQjM8jysRNLpTeemElQiiQbhB+ZbxQgDPk
eKVWrzBKtMitheZj7qOpi5LRHIMfd/9m94C7ldtn9o2e/Ug5kZavY+MPouQZSR8I
VgAhlr9HdKLXcDPVpBrtTj04aGHBeHztZ3CTaZk=
-----END CERTIFICATE-----
