Certificate:
    Data:
        Version: 3 (0x2)
        Serial Number:
            5a:9b:92:5f:84:2b:23:9c:ef:2e:9e:61:55:a3:eb:b9
        Signature Algorithm: sha256WithRSAEncryption
        Issuer: CN=at
        Validity
            Not Before: Dec 15 23:23:58 2020 GMT
            Not After : Mar 20 23:23:58 2023 GMT
        Subject: CN=109.68.214.196
        Subject Public Key Info:
            Public Key Algorithm: rsaEncryption
                RSA Public-Key: (2048 bit)
                Modulus:
                    00:d2:80:df:b2:10:19:fc:f3:ec:f5:67:50:7d:95:
                    0c:06:78:29:96:df:0b:71:80:fe:a6:3b:51:44:50:
                    f7:24:17:f9:9c:d2:ef:cd:be:60:84:83:dd:7b:37:
                    25:39:b1:3c:0e:a9:02:f0:4a:da:e5:7c:04:f8:94:
                    f8:c0:dd:36:a3:fc:e3:04:ee:8b:df:2f:ef:68:d3:
                    0c:73:1e:de:70:02:aa:d6:2c:f8:a3:fa:ae:16:f5:
                    a0:d5:d5:ba:ae:0a:4e:76:f6:12:32:f4:9a:b2:32:
                    de:61:c8:f1:c1:84:32:2c:28:f7:8b:1c:0c:30:4b:
                    97:97:83:aa:ee:4f:fc:a9:48:90:a4:05:35:a6:f8:
                    6b:89:5c:cd:4d:f9:ef:96:64:8d:87:ce:25:3c:f4:
                    dc:36:1c:31:3d:88:8f:f9:81:be:8f:f4:7a:64:07:
                    90:6f:dd:70:68:aa:b8:d9:24:b2:47:64:51:de:eb:
                    96:20:ad:b6:c7:15:ab:02:7c:50:2e:c8:f8:58:fc:
                    2f:35:ca:ab:e2:55:c9:bc:09:27:60:04:c7:d2:b3:
                    c5:f7:13:a5:26:b7:87:8a:b5:43:e9:41:b5:f1:a4:
                    0d:eb:cd:37:ac:9d:48:55:dd:78:47:4f:c2:73:81:
                    1c:ab:d0:37:7a:d1:d0:28:11:e0:b8:73:f1:a1:dc:
                    ba:47
                Exponent: 65537 (0x10001)
        X509v3 extensions:
            X509v3 Basic Constraints: 
                CA:FALSE
            X509v3 Subject Key Identifier: 
                44:4F:25:EC:CF:60:2D:36:C6:DB:05:C1:25:E9:2C:60:6D:B4:BF:F8
            X509v3 Authority Key Identifier: 
                keyid:9A:26:28:EE:75:98:66:53:C1:01:EA:DD:BB:D0:EF:25:13:28:35:93
                DirName:/CN=at
                serial:5B:E3:B5:62:C5:C9:66:A7:03:D5:C9:06:CB:28:31:51:DF:0C:E9:1E

            X509v3 Extended Key Usage: 
                TLS Web Server Authentication
            X509v3 Key Usage: 
                Digital Signature, Key Encipherment
            X509v3 Subject Alternative Name: 
                IP Address:109.68.214.196
    Signature Algorithm: sha256WithRSAEncryption
         a8:56:b3:eb:55:9e:cd:96:1b:25:25:7f:3d:c8:e9:34:00:41:
         87:8d:19:e5:0c:94:9e:36:b5:42:78:ac:c2:1d:e8:92:fe:7a:
         07:ba:b9:6a:62:93:3c:6f:5f:42:07:e7:5f:44:ed:1b:90:71:
         1f:21:ce:00:64:84:20:6e:5d:07:93:1f:70:af:78:5b:35:8e:
         a1:24:43:7c:e3:7d:e7:e3:c9:f8:57:87:0d:d1:01:f2:76:7c:
         19:54:94:25:79:7d:d4:31:19:38:ce:9b:99:fe:1a:b2:de:71:
         95:6e:39:19:7a:06:07:63:43:2f:71:37:83:19:8b:80:1f:8e:
         26:3f:f5:89:f0:6d:ce:9a:10:22:ee:f9:b6:58:45:89:26:e8:
         a1:00:74:0a:08:f1:3d:52:90:97:63:09:f3:eb:3d:1c:90:93:
         76:e3:8d:b4:1c:79:79:be:94:ec:e7:f0:7b:1e:c9:37:b6:a8:
         5d:86:7d:a8:e9:ec:ab:5a:50:9c:c3:f2:e0:75:e1:1f:62:95:
         a9:29:1c:e8:9b:a9:56:5a:cc:be:fb:7d:c2:d9:b9:34:81:46:
         fc:e7:c7:ac:88:10:5f:ee:9b:65:d7:c7:0b:a9:72:2c:23:8f:
         40:7f:74:97:0f:93:24:a3:7d:80:64:f5:f5:b2:6e:da:8d:5b:
         61:f0:b3:cb
-----BEGIN CERTIFICATE-----
MIIDWzCCAkOgAwIBAgIQWpuSX4QrI5zvLp5hVaPruTANBgkqhkiG9w0BAQsFADAN
MQswCQYDVQQDDAJhdDAeFw0yMDEyMTUyMzIzNThaFw0yMzAzMjAyMzIzNThaMBkx
FzAVBgNVBAMMDjEwOS42OC4yMTQuMTk2MIIBIjANBgkqhkiG9w0BAQEFAAOCAQ8A
MIIBCgKCAQEA0oDfshAZ/PPs9WdQfZUMBngplt8LcYD+pjtRRFD3JBf5nNLvzb5g
hIPdezclObE8DqkC8Era5XwE+JT4wN02o/zjBO6L3y/vaNMMcx7ecAKq1iz4o/qu
FvWg1dW6rgpOdvYSMvSasjLeYcjxwYQyLCj3ixwMMEuXl4Oq7k/8qUiQpAU1pvhr
iVzNTfnvlmSNh84lPPTcNhwxPYiP+YG+j/R6ZAeQb91waKq42SSyR2RR3uuWIK22
xxWrAnxQLsj4WPwvNcqr4lXJvAknYATH0rPF9xOlJreHirVD6UG18aQN6803rJ1I
Vd14R0/Cc4Ecq9A3etHQKBHguHPxody6RwIDAQABo4GqMIGnMAkGA1UdEwQCMAAw
HQYDVR0OBBYEFERPJezPYC02xtsFwSXpLGBttL/4MEgGA1UdIwRBMD+AFJomKO51
mGZTwQHq3bvQ7yUTKDWToRGkDzANMQswCQYDVQQDDAJhdIIUW+O1YsXJZqcD1ckG
yygxUd8M6R4wEwYDVR0lBAwwCgYIKwYBBQUHAwEwCwYDVR0PBAQDAgWgMA8GA1Ud
EQQIMAaHBG1E1sQwDQYJKoZIhvcNAQELBQADggEBAKhWs+tVns2WGyUlfz3I6TQA
QYeNGeUMlJ42tUJ4rMId6JL+ege6uWpikzxvX0IH519E7RuQcR8hzgBkhCBuXQeT
H3CveFs1jqEkQ3zjfefjyfhXhw3RAfJ2fBlUlCV5fdQxGTjOm5n+GrLecZVuORl6
BgdjQy9xN4MZi4AfjiY/9Ynwbc6aECLu+bZYRYkm6KEAdAoI8T1SkJdjCfPrPRyQ
k3bjjbQceXm+lOzn8HseyTe2qF2Gfajp7KtaUJzD8uB14R9ilakpHOibqVZazL77
fcLZuTSBRvznx6yIEF/um2XXxwupciwjj0B/dJcPkySjfYBk9fWybtqNW2Hws8s=
-----END CERTIFICATE-----
