Certificate:
    Data:
        Version: 3 (0x2)
        Serial Number:
            d5:71:65:d2:a4:36:f0:3c:95:8f:1f:24:93:5d:58:10
        Signature Algorithm: sha256WithRSAEncryption
        Issuer: CN=at
        Validity
            Not Before: Dec 15 23:25:35 2020 GMT
            Not After : Mar 20 23:25:35 2023 GMT
        Subject: CN=home_router
        Subject Public Key Info:
            Public Key Algorithm: rsaEncryption
                RSA Public-Key: (2048 bit)
                Modulus:
                    00:ed:f2:12:08:53:fd:97:03:cb:6a:6a:29:0f:64:
                    9c:6c:16:1d:81:0a:3d:21:b0:f1:6b:4d:c4:32:c9:
                    8e:f3:da:a1:fb:ca:6d:e4:ac:4b:aa:50:ce:8f:0b:
                    b1:e6:f3:82:d7:e0:eb:a5:f1:8f:18:dc:7e:b5:d5:
                    7c:95:a6:2c:8e:53:77:1f:2c:56:b0:0b:03:2d:d3:
                    66:be:5c:d4:1f:be:9a:b2:32:23:c7:32:15:e8:c5:
                    23:3c:02:d8:e8:5c:3b:4c:b6:e2:c2:74:99:32:50:
                    9b:50:68:d1:9a:f2:d4:ee:6d:45:36:81:e0:97:c2:
                    7c:df:58:5f:53:24:42:bb:40:67:95:1d:98:57:4f:
                    9f:de:60:e4:6e:f6:bf:48:11:b1:66:ff:c0:90:64:
                    07:67:a1:c8:4c:89:a6:96:66:c0:02:ca:f8:5c:8b:
                    ed:8c:33:6e:fe:c1:76:7c:04:8a:94:c1:6a:fb:9c:
                    8e:59:30:bf:c5:a3:a4:60:a2:06:35:c2:60:d0:eb:
                    81:ba:17:65:80:c1:2f:b1:a6:85:4b:cd:96:a1:e4:
                    59:d0:d4:fa:14:c0:62:c6:e7:0f:ab:7f:f8:07:29:
                    96:86:0d:4d:cc:8d:ab:cd:ca:9c:da:e1:db:02:a0:
                    40:16:30:a2:d2:43:0e:26:29:50:82:6d:db:63:cf:
                    ad:19
                Exponent: 65537 (0x10001)
        X509v3 extensions:
            X509v3 Basic Constraints: 
                CA:FALSE
            X509v3 Subject Key Identifier: 
                FE:BD:8C:EE:ED:74:84:2D:7C:44:75:27:CA:CB:69:65:06:18:A0:57
            X509v3 Authority Key Identifier: 
                keyid:9A:26:28:EE:75:98:66:53:C1:01:EA:DD:BB:D0:EF:25:13:28:35:93
                DirName:/CN=at
                serial:5B:E3:B5:62:C5:C9:66:A7:03:D5:C9:06:CB:28:31:51:DF:0C:E9:1E

            X509v3 Extended Key Usage: 
                TLS Web Client Authentication
            X509v3 Key Usage: 
                Digital Signature
    Signature Algorithm: sha256WithRSAEncryption
         15:70:9d:a7:22:81:ab:24:df:e5:03:5d:ca:a9:d8:72:34:51:
         ca:0c:78:2f:3d:ba:8c:a2:fa:19:da:20:7d:f0:a9:6b:a2:44:
         3d:09:bb:50:fa:7b:b8:8b:7d:34:41:2d:73:7b:5b:10:84:aa:
         88:60:fe:96:cf:ab:b6:b2:2e:1b:9d:63:36:b1:e7:b1:79:06:
         70:72:cb:06:07:74:05:46:f1:16:4c:5f:22:5f:fb:27:45:03:
         a2:80:6f:09:56:ca:5d:ef:69:73:27:d3:f6:c7:20:54:f0:d8:
         7a:08:0a:98:bd:74:99:20:b4:62:dc:ec:83:6d:f6:ac:b4:fd:
         8c:32:67:ec:76:b9:3b:f8:27:c0:81:2d:c1:f4:87:9e:67:99:
         e1:69:59:3a:6c:5a:4c:2e:1e:4e:94:0b:ad:f0:d4:60:c2:0b:
         59:78:38:5e:9b:e9:36:1a:aa:78:17:27:c4:a0:88:c5:61:b4:
         a4:d7:56:a1:e2:e9:10:ed:0c:56:c7:e3:12:44:a7:38:fe:db:
         1f:97:48:2c:86:31:52:6c:d7:e4:ee:c2:ad:d6:e2:36:3a:ba:
         52:b0:be:3e:af:85:5a:4b:5b:51:36:cc:d7:07:8a:3f:02:0b:
         ae:4e:bc:46:62:31:b2:e3:c5:fd:89:ed:c4:6c:59:c4:c5:25:
         d1:47:1b:9d
-----BEGIN CERTIFICATE-----
MIIDSDCCAjCgAwIBAgIRANVxZdKkNvA8lY8fJJNdWBAwDQYJKoZIhvcNAQELBQAw
DTELMAkGA1UEAwwCYXQwHhcNMjAxMjE1MjMyNTM1WhcNMjMwMzIwMjMyNTM1WjAW
MRQwEgYDVQQDDAtob21lX3JvdXRlcjCCASIwDQYJKoZIhvcNAQEBBQADggEPADCC
AQoCggEBAO3yEghT/ZcDy2pqKQ9knGwWHYEKPSGw8WtNxDLJjvPaofvKbeSsS6pQ
zo8Lsebzgtfg66XxjxjcfrXVfJWmLI5Tdx8sVrALAy3TZr5c1B++mrIyI8cyFejF
IzwC2OhcO0y24sJ0mTJQm1Bo0Zry1O5tRTaB4JfCfN9YX1MkQrtAZ5UdmFdPn95g
5G72v0gRsWb/wJBkB2ehyEyJppZmwALK+FyL7Ywzbv7BdnwEipTBavucjlkwv8Wj
pGCiBjXCYNDrgboXZYDBL7GmhUvNlqHkWdDU+hTAYsbnD6t/+AcploYNTcyNq83K
nNrh2wKgQBYwotJDDiYpUIJt22PPrRkCAwEAAaOBmTCBljAJBgNVHRMEAjAAMB0G
A1UdDgQWBBT+vYzu7XSELXxEdSfKy2llBhigVzBIBgNVHSMEQTA/gBSaJijudZhm
U8EB6t270O8lEyg1k6ERpA8wDTELMAkGA1UEAwwCYXSCFFvjtWLFyWanA9XJBsso
MVHfDOkeMBMGA1UdJQQMMAoGCCsGAQUFBwMCMAsGA1UdDwQEAwIHgDANBgkqhkiG
9w0BAQsFAAOCAQEAFXCdpyKBqyTf5QNdyqnYcjRRygx4Lz26jKL6GdogffCpa6JE
PQm7UPp7uIt9NEEtc3tbEISqiGD+ls+rtrIuG51jNrHnsXkGcHLLBgd0BUbxFkxf
Il/7J0UDooBvCVbKXe9pcyfT9scgVPDYeggKmL10mSC0Ytzsg232rLT9jDJn7Ha5
O/gnwIEtwfSHnmeZ4WlZOmxaTC4eTpQLrfDUYMILWXg4XpvpNhqqeBcnxKCIxWG0
pNdWoeLpEO0MVsfjEkSnOP7bH5dILIYxUmzX5O7CrdbiNjq6UrC+Pq+FWktbUTbM
1weKPwILrk68RmIxsuPF/YntxGxZxMUl0UcbnQ==
-----END CERTIFICATE-----
