Certificate:
    Data:
        Version: 3 (0x2)
        Serial Number:
            50:64:96:82:6c:7a:58:9a:f6:3f:32:cf:24:0f:39:d3
        Signature Algorithm: sha256WithRSAEncryption
        Issuer: CN=at
        Validity
            Not Before: Dec 30 18:49:42 2020 GMT
            Not After : Apr  4 18:49:42 2023 GMT
        Subject: CN=andrey
        Subject Public Key Info:
            Public Key Algorithm: rsaEncryption
                RSA Public-Key: (2048 bit)
                Modulus:
                    00:a6:b1:9b:c9:ca:f7:82:89:aa:5e:9d:af:0d:fc:
                    0e:9e:67:82:a9:ac:b8:76:b3:28:10:ed:b1:59:0f:
                    6b:f9:e7:15:6a:6a:25:03:35:42:7b:25:c4:ed:8d:
                    f6:c0:fb:45:1c:d8:6f:e8:ca:2e:75:74:49:da:9f:
                    ec:c4:c8:45:33:88:9c:29:d4:fe:ae:84:3a:e4:a4:
                    78:0b:d7:56:fb:bd:97:99:93:56:84:d9:15:fd:17:
                    a9:65:28:06:6a:41:72:ac:90:0b:5d:7e:5b:e5:93:
                    31:d1:2b:bc:3c:99:bc:a0:dc:4e:74:d1:6d:67:12:
                    3d:7a:e3:85:81:e7:1e:6d:a6:ae:dc:a0:98:f8:96:
                    8b:3c:b2:45:dc:2b:30:2d:e7:93:7c:16:15:c3:32:
                    5f:3b:2f:ef:7b:9a:cf:c4:8d:2a:f0:92:d6:13:e5:
                    8f:3f:69:54:c2:b8:70:0a:0d:3a:9e:4a:29:70:2e:
                    88:53:39:a1:f2:92:2b:ea:52:ac:1c:ac:3e:3d:f5:
                    b7:bb:28:2a:2c:ec:1c:53:15:09:b2:41:36:18:6c:
                    c9:a3:56:de:b0:b2:a0:70:90:f1:5b:93:05:ed:09:
                    0c:94:67:e9:29:fa:68:93:44:23:02:e7:04:73:25:
                    df:92:ef:40:a2:dd:30:bc:13:3e:a3:aa:11:18:34:
                    f1:c1
                Exponent: 65537 (0x10001)
        X509v3 extensions:
            X509v3 Basic Constraints: 
                CA:FALSE
            X509v3 Subject Key Identifier: 
                9B:FB:B3:71:D4:57:4F:5A:56:96:07:F8:69:D5:FB:24:F0:83:4D:E1
            X509v3 Authority Key Identifier: 
                keyid:9A:26:28:EE:75:98:66:53:C1:01:EA:DD:BB:D0:EF:25:13:28:35:93
                DirName:/CN=at
                serial:5B:E3:B5:62:C5:C9:66:A7:03:D5:C9:06:CB:28:31:51:DF:0C:E9:1E

            X509v3 Extended Key Usage: 
                TLS Web Client Authentication
            X509v3 Key Usage: 
                Digital Signature
    Signature Algorithm: sha256WithRSAEncryption
         4a:e8:59:d8:49:86:27:12:8c:03:ad:e0:12:b8:2d:66:42:5d:
         e1:1b:cc:7f:4e:f8:2c:b9:7f:68:be:f9:6d:f7:1f:d0:8b:e2:
         79:7d:d1:a3:6d:ce:00:ec:43:6e:22:30:68:5f:b9:fa:76:5e:
         73:83:d6:78:91:d5:de:31:a7:b9:15:e0:a6:8a:39:3a:43:e9:
         18:90:d4:6f:66:98:bc:c8:47:7e:3e:58:6c:79:30:09:76:d7:
         9f:8e:31:ad:58:b7:15:56:a5:4c:1e:73:94:e0:a7:54:57:8a:
         f9:f2:39:41:51:0f:41:59:0a:70:90:ac:5f:53:bd:30:fa:b8:
         a4:9e:fd:67:e3:c2:81:84:fe:03:e0:30:3e:0b:5d:a2:88:68:
         33:2c:70:f6:e3:30:1e:a8:25:1a:80:49:b1:6f:94:d6:64:fe:
         6f:5d:1f:08:78:0e:64:6d:fe:85:59:d1:c6:80:59:b8:7e:3e:
         c2:f7:51:cc:70:38:53:4b:1e:37:44:c8:83:ac:a8:e1:27:eb:
         21:d1:d0:ec:fe:8f:9a:6c:b4:17:b7:3a:c7:5d:74:d1:1f:f4:
         e5:37:a1:85:fd:5b:b6:bb:5a:de:40:49:e6:1b:77:13:eb:23:
         f8:48:4d:96:f2:b7:46:6d:ca:53:49:f5:ae:d9:0a:5b:dd:32:
         c2:96:dd:41
-----BEGIN CERTIFICATE-----
MIIDQjCCAiqgAwIBAgIQUGSWgmx6WJr2PzLPJA850zANBgkqhkiG9w0BAQsFADAN
MQswCQYDVQQDDAJhdDAeFw0yMDEyMzAxODQ5NDJaFw0yMzA0MDQxODQ5NDJaMBEx
DzANBgNVBAMMBmFuZHJleTCCASIwDQYJKoZIhvcNAQEBBQADggEPADCCAQoCggEB
AKaxm8nK94KJql6drw38Dp5ngqmsuHazKBDtsVkPa/nnFWpqJQM1QnslxO2N9sD7
RRzYb+jKLnV0Sdqf7MTIRTOInCnU/q6EOuSkeAvXVvu9l5mTVoTZFf0XqWUoBmpB
cqyQC11+W+WTMdErvDyZvKDcTnTRbWcSPXrjhYHnHm2mrtygmPiWizyyRdwrMC3n
k3wWFcMyXzsv73uaz8SNKvCS1hPljz9pVMK4cAoNOp5KKXAuiFM5ofKSK+pSrBys
Pj31t7soKizsHFMVCbJBNhhsyaNW3rCyoHCQ8VuTBe0JDJRn6Sn6aJNEIwLnBHMl
35LvQKLdMLwTPqOqERg08cECAwEAAaOBmTCBljAJBgNVHRMEAjAAMB0GA1UdDgQW
BBSb+7Nx1FdPWlaWB/hp1fsk8INN4TBIBgNVHSMEQTA/gBSaJijudZhmU8EB6t27
0O8lEyg1k6ERpA8wDTELMAkGA1UEAwwCYXSCFFvjtWLFyWanA9XJBssoMVHfDOke
MBMGA1UdJQQMMAoGCCsGAQUFBwMCMAsGA1UdDwQEAwIHgDANBgkqhkiG9w0BAQsF
AAOCAQEASuhZ2EmGJxKMA63gErgtZkJd4RvMf074LLl/aL75bfcf0IvieX3Ro23O
AOxDbiIwaF+5+nZec4PWeJHV3jGnuRXgpoo5OkPpGJDUb2aYvMhHfj5YbHkwCXbX
n44xrVi3FValTB5zlOCnVFeK+fI5QVEPQVkKcJCsX1O9MPq4pJ79Z+PCgYT+A+Aw
PgtdoohoMyxw9uMwHqglGoBJsW+U1mT+b10fCHgOZG3+hVnRxoBZuH4+wvdRzHA4
U0seN0TIg6yo4SfrIdHQ7P6Pmmy0F7c6x1100R/05Tehhf1btrta3kBJ5ht3E+sj
+EhNlvK3Rm3KU0n1rtkKW90ywpbdQQ==
-----END CERTIFICATE-----
